target datalayout = "e-m:e-p270:32:32-p271:32:32-p272:64:64-i64:64-i128:128-f80:128-n8:16:32:64-S128"
target triple = "x86_64-pc-linux-gnu"

%struct.darktable_t = type { %struct.dt_codepath_t, i32, i32, ptr, ptr, ptr, ptr, ptr, ptr, ptr, ptr, ptr, ptr, ptr, ptr, ptr, ptr, ptr, ptr, ptr, ptr, ptr, ptr, ptr, ptr, ptr, ptr, ptr, ptr, ptr, [64 x %struct.dt_pthread_mutex_t], %struct.dt_pthread_mutex_t, %struct.dt_pthread_mutex_t, %struct.dt_pthread_mutex_t, %struct.dt_pthread_mutex_t, %struct.dt_pthread_mutex_t, ptr, ptr, ptr, ptr, ptr, ptr, ptr, ptr, ptr, ptr, ptr, ptr, ptr, %struct.dt_lua_state_t, ptr, double, ptr, i32, [47 x i32], i32, i32, ptr, ptr, %struct.dt_sys_resources_t, %struct.dt_backthumb_t, %struct.dt_gimp_t }
%struct.dt_codepath_t = type { i8, [3 x i8] }
%struct.dt_pthread_mutex_t = type { %union.pthread_mutex_t }
%union.pthread_mutex_t = type { %struct.__pthread_mutex_s }
%struct.__pthread_mutex_s = type { i32, i32, i32, i32, i32, i16, i16, %struct.__pthread_internal_list }
%struct.__pthread_internal_list = type { ptr, ptr }
%struct.dt_lua_state_t = type { i32 }
%struct.dt_sys_resources_t = type { i64, i64, ptr, ptr, i32 }
%struct.dt_backthumb_t = type { double, double, i32, i32, i32, i32 }
%struct.dt_gimp_t = type { i32, ptr, ptr, i32, i32 }
%struct.dt_camctl_t = type { %struct.dt_pthread_mutex_t, %struct.dt_pthread_mutex_t, i64, ptr, ptr, ptr, ptr, ptr, ptr, ptr, ptr, i32, i32, i32 }

@darktable = external global %struct.darktable_t, align 8
@.str.10 = private unnamed_addr constant [41 x i8] c"[camera_control] registering listener %p\00", align 1
@.str.11 = private unnamed_addr constant [60 x i8] c"[camera_control] registering already registered listener %p\00", align 1

; Function Attrs: inlinehint nounwind uwtable
define internal i32 @dt_pthread_mutex_unlock(ptr noundef %0) #4 {
  %2 = alloca ptr, align 8
  store ptr %0, ptr %2, align 8, !tbaa !91
  %3 = load ptr, ptr %2, align 8, !tbaa !91
  %4 = getelementptr inbounds nuw %struct.dt_pthread_mutex_t, ptr %3, i32 0, i32 0
  %5 = call i32 @pthread_mutex_unlock(ptr noundef %4) #10
  ret i32 %5
}

; Function Attrs: inlinehint nounwind uwtable
define internal i32 @dt_pthread_mutex_lock(ptr noundef %0) #4 {
  %2 = alloca ptr, align 8
  store ptr %0, ptr %2, align 8, !tbaa !91
  %3 = load ptr, ptr %2, align 8, !tbaa !91
  %4 = getelementptr inbounds nuw %struct.dt_pthread_mutex_t, ptr %3, i32 0, i32 0
  %5 = call i32 @pthread_mutex_lock(ptr noundef %4) #10
  ret i32 %5
}

; Function Attrs: nounwind uwtable
define void @dt_camctl_register_listener(ptr noundef %0, ptr noundef %1) #0 {
  %3 = alloca ptr, align 8
  %4 = alloca ptr, align 8
  %5 = alloca ptr, align 8
  store ptr %0, ptr %3, align 8, !tbaa !6
  store ptr %1, ptr %4, align 8, !tbaa !104
  call void @llvm.lifetime.start.p0(i64 8, ptr %5) #10
  %6 = load ptr, ptr %3, align 8, !tbaa !6
  store ptr %6, ptr %5, align 8, !tbaa !6
  %7 = load ptr, ptr %5, align 8, !tbaa !6
  %8 = getelementptr inbounds nuw %struct.dt_camctl_t, ptr %7, i32 0, i32 1
  %9 = call i32 @dt_pthread_mutex_lock(ptr noundef %8)
  %10 = load ptr, ptr %5, align 8, !tbaa !6
  %11 = getelementptr inbounds nuw %struct.dt_camctl_t, ptr %10, i32 0, i32 3
  %12 = load ptr, ptr %11, align 8, !tbaa !106
  %13 = load ptr, ptr %4, align 8, !tbaa !104
  %14 = call ptr @g_list_find(ptr noundef %12, ptr noundef %13)
  %15 = icmp eq ptr %14, null
  br i1 %15, label %16, label %38

16:                                               ; preds = %2
  %17 = load ptr, ptr %5, align 8, !tbaa !6
  %18 = getelementptr inbounds nuw %struct.dt_camctl_t, ptr %17, i32 0, i32 3
  %19 = load ptr, ptr %18, align 8, !tbaa !106
  %20 = load ptr, ptr %4, align 8, !tbaa !104
  %21 = call ptr @g_list_append(ptr noundef %19, ptr noundef %20)
  %22 = load ptr, ptr %5, align 8, !tbaa !6
  %23 = getelementptr inbounds nuw %struct.dt_camctl_t, ptr %22, i32 0, i32 3
  store ptr %21, ptr %23, align 8, !tbaa !106
  br label %24

24:                                               ; preds = %16
  %25 = load i32, ptr getelementptr inbounds nuw (%struct.darktable_t, ptr @darktable, i32 0, i32 2), align 8, !tbaa !22
  %26 = and i32 32, %25
  %27 = icmp ne i32 %26, 0
  br i1 %27, label %28, label %35

28:                                               ; preds = %24
  %29 = load i32, ptr getelementptr inbounds nuw (%struct.darktable_t, ptr @darktable, i32 0, i32 2), align 8, !tbaa !22
  %30 = xor i32 %29, -1
  %31 = and i32 0, %30
  %32 = icmp ne i32 %31, 0
  br i1 %32, label %35, label %33

33:                                               ; preds = %28
  %34 = load ptr, ptr %4, align 8, !tbaa !104
  call void (ptr, ...) @dt_print_ext(ptr noundef @.str.10, ptr noundef %34)
  br label %35

35:                                               ; preds = %33, %28, %24
  br label %36

36:                                               ; preds = %35
  br label %37

37:                                               ; preds = %36
  br label %53

38:                                               ; preds = %2
  br label %39

39:                                               ; preds = %38
  %40 = load i32, ptr getelementptr inbounds nuw (%struct.darktable_t, ptr @darktable, i32 0, i32 2), align 8, !tbaa !22
  %41 = and i32 32, %40
  %42 = icmp ne i32 %41, 0
  br i1 %42, label %43, label %50

43:                                               ; preds = %39
  %44 = load i32, ptr getelementptr inbounds nuw (%struct.darktable_t, ptr @darktable, i32 0, i32 2), align 8, !tbaa !22
  %45 = xor i32 %44, -1
  %46 = and i32 0, %45
  %47 = icmp ne i32 %46, 0
  br i1 %47, label %50, label %48

48:                                               ; preds = %43
  %49 = load ptr, ptr %4, align 8, !tbaa !104
  call void (ptr, ...) @dt_print_ext(ptr noundef @.str.11, ptr noundef %49)
  br label %50

50:                                               ; preds = %48, %43, %39
  br label %51

51:                                               ; preds = %50
  br label %52

52:                                               ; preds = %51
  br label %53

53:                                               ; preds = %52, %37
  %54 = load ptr, ptr %5, align 8, !tbaa !6
  %55 = getelementptr inbounds nuw %struct.dt_camctl_t, ptr %54, i32 0, i32 1
  %56 = call i32 @dt_pthread_mutex_unlock(ptr noundef %55)
  call void @llvm.lifetime.end.p0(i64 8, ptr %5) #10
  ret void
}