; Function Attrs: nounwind uwtable
define void @dt_camctl_register_listener(ptr noundef %0, ptr noundef %1) local_unnamed_addr #0 {
  %3 = getelementptr inbounds nuw i8, ptr %0, i64 40
  %4 = tail call i32 @pthread_mutex_lock(ptr noundef nonnull %3) #15
  %5 = getelementptr inbounds nuw i8, ptr %0, i64 88
  %6 = load ptr, ptr %5, align 8, !tbaa !97
  %7 = tail call ptr @g_list_find(ptr noundef %6, ptr noundef %1) #15
  %8 = icmp eq ptr %7, null
  br i1 %8, label %9, label %14

9:                                                ; preds = %2
  %10 = load ptr, ptr %5, align 8, !tbaa !97
  %11 = tail call ptr @g_list_append(ptr noundef %10, ptr noundef %1) #15
  store ptr %11, ptr %5, align 8, !tbaa !97
  %12 = load i32, ptr getelementptr inbounds nuw (i8, ptr @darktable, i64 8), align 8, !tbaa !19
  %13 = and i32 %12, 32
  %.not10 = icmp eq i32 %13, 0
  br i1 %.not10, label %17, label %.sink.split

14:                                               ; preds = %2
  %15 = load i32, ptr getelementptr inbounds nuw (i8, ptr @darktable, i64 8), align 8, !tbaa !19
  %16 = and i32 %15, 32
  %.not = icmp eq i32 %16, 0
  br i1 %.not, label %17, label %.sink.split

.sink.split:                                      ; preds = %14, %9
  %.str.11.sink = phi ptr [ @.str.10, %9 ], [ @.str.11, %14 ]
  tail call void (ptr, ...) @dt_print_ext(ptr noundef nonnull %.str.11.sink, ptr noundef %1) #15
  br label %17

17:                                               ; preds = %.sink.split, %14, %9
  %18 = tail call i32 @pthread_mutex_unlock(ptr noundef nonnull %3) #15
  ret void
}